target datalayout = "e-m:e-p270:32:32-p271:32:32-p272:64:64-i64:64-i128:128-f80:128-n8:16:32:64-S128"
target triple = "x86_64-pc-linux-gnu"

%struct.UHashtable = type { ptr, ptr, ptr, ptr, ptr, ptr, i32, i32, i32, i32, float, float, i8, i8 }
%struct.UHashElement = type { i32, %union.UElement, %union.UElement }
%union.UElement = type { ptr }

; Function Attrs: mustprogress nounwind uwtable
define ptr @uhash_nextElement_77(ptr noundef %0, ptr noundef %1) #2 {
  %3 = alloca ptr, align 8
  %4 = alloca ptr, align 8
  %5 = alloca ptr, align 8
  %6 = alloca i32, align 4
  %7 = alloca i32, align 4
  store ptr %0, ptr %4, align 8, !tbaa !11
  store ptr %1, ptr %5, align 8, !tbaa !29
  call void @llvm.lifetime.start.p0(i64 4, ptr %6) #9
  %8 = load ptr, ptr %5, align 8, !tbaa !29
  %9 = load i32, ptr %8, align 4, !tbaa !7
  %10 = add nsw i32 %9, 1
  store i32 %10, ptr %6, align 4, !tbaa !7
  br label %11

11:                                               ; preds = %37, %2
  %12 = load i32, ptr %6, align 4, !tbaa !7
  %13 = load ptr, ptr %4, align 8, !tbaa !11
  %14 = getelementptr inbounds nuw %struct.UHashtable, ptr %13, i32 0, i32 7
  %15 = load i32, ptr %14, align 4, !tbaa !31
  %16 = icmp slt i32 %12, %15
  br i1 %16, label %17, label %40

17:                                               ; preds = %11
  %18 = load ptr, ptr %4, align 8, !tbaa !11
  %19 = getelementptr inbounds nuw %struct.UHashtable, ptr %18, i32 0, i32 0
  %20 = load ptr, ptr %19, align 8, !tbaa !25
  %21 = load i32, ptr %6, align 4, !tbaa !7
  %22 = sext i32 %21 to i64
  %23 = getelementptr inbounds %struct.UHashElement, ptr %20, i64 %22
  %24 = getelementptr inbounds nuw %struct.UHashElement, ptr %23, i32 0, i32 0
  %25 = load i32, ptr %24, align 8, !tbaa !32
  %26 = icmp slt i32 %25, 0
  br i1 %26, label %36, label %27

27:                                               ; preds = %17
  %28 = load i32, ptr %6, align 4, !tbaa !7
  %29 = load ptr, ptr %5, align 8, !tbaa !29
  store i32 %28, ptr %29, align 4, !tbaa !7
  %30 = load ptr, ptr %4, align 8, !tbaa !11
  %31 = getelementptr inbounds nuw %struct.UHashtable, ptr %30, i32 0, i32 0
  %32 = load ptr, ptr %31, align 8, !tbaa !25
  %33 = load i32, ptr %6, align 4, !tbaa !7
  %34 = sext i32 %33 to i64
  %35 = getelementptr inbounds %struct.UHashElement, ptr %32, i64 %34
  store ptr %35, ptr %3, align 8
  store i32 1, ptr %7, align 4
  br label %41

36:                                               ; preds = %17
  br label %37

37:                                               ; preds = %36
  %38 = load i32, ptr %6, align 4, !tbaa !7
  %39 = add nsw i32 %38, 1
  store i32 %39, ptr %6, align 4, !tbaa !7
  br label %11, !llvm.loop !34

40:                                               ; preds = %11
  store ptr null, ptr %3, align 8
  store i32 1, ptr %7, align 4
  br label %41

41:                                               ; preds = %40, %27
  call void @llvm.lifetime.end.p0(i64 4, ptr %6) #9
  %42 = load ptr, ptr %3, align 8
  ret ptr %42
}

; Function Attrs: mustprogress uwtable
define void @uhash_close_77(ptr noundef %0) #0 {
  %2 = alloca ptr, align 8
  %3 = alloca i32, align 4
  %4 = alloca ptr, align 8
  store ptr %0, ptr %2, align 8, !tbaa !11
  %5 = load ptr, ptr %2, align 8, !tbaa !11
  %6 = icmp eq ptr %5, null
  br i1 %6, label %7, label %8

7:                                                ; preds = %1
  br label %80

8:                                                ; preds = %1
  %9 = load ptr, ptr %2, align 8, !tbaa !11
  %10 = getelementptr inbounds nuw %struct.UHashtable, ptr %9, i32 0, i32 0
  %11 = load ptr, ptr %10, align 8, !tbaa !25
  %12 = icmp ne ptr %11, null
  br i1 %12, label %13, label %73

13:                                               ; preds = %8
  %14 = load ptr, ptr %2, align 8, !tbaa !11
  %15 = getelementptr inbounds nuw %struct.UHashtable, ptr %14, i32 0, i32 4
  %16 = load ptr, ptr %15, align 8, !tbaa !22
  %17 = icmp ne ptr %16, null
  br i1 %17, label %23, label %18

18:                                               ; preds = %13
  %19 = load ptr, ptr %2, align 8, !tbaa !11
  %20 = getelementptr inbounds nuw %struct.UHashtable, ptr %19, i32 0, i32 5
  %21 = load ptr, ptr %20, align 8, !tbaa !23
  %22 = icmp ne ptr %21, null
  br i1 %22, label %23, label %67

23:                                               ; preds = %18, %13
  call void @llvm.lifetime.start.p0(i64 4, ptr %3) #9
  store i32 -1, ptr %3, align 4, !tbaa !7
  call void @llvm.lifetime.start.p0(i64 8, ptr %4) #9
  br label %24

24:                                               ; preds = %65, %23
  %25 = load ptr, ptr %2, align 8, !tbaa !11
  %26 = call ptr @uhash_nextElement_77(ptr noundef %25, ptr noundef %3)
  store ptr %26, ptr %4, align 8, !tbaa !26
  %27 = icmp ne ptr %26, null
  br i1 %27, label %28, label %66

28:                                               ; preds = %24
  br label %29

29:                                               ; preds = %28
  %30 = load ptr, ptr %2, align 8, !tbaa !11
  %31 = getelementptr inbounds nuw %struct.UHashtable, ptr %30, i32 0, i32 4
  %32 = load ptr, ptr %31, align 8, !tbaa !22
  %33 = icmp ne ptr %32, null
  br i1 %33, label %34, label %46

34:                                               ; preds = %29
  %35 = load ptr, ptr %4, align 8, !tbaa !26
  %36 = getelementptr inbounds nuw %struct.UHashElement, ptr %35, i32 0, i32 2
  %37 = load ptr, ptr %36, align 8, !tbaa !27
  %38 = icmp ne ptr %37, null
  br i1 %38, label %39, label %46

39:                                               ; preds = %34
  %40 = load ptr, ptr %2, align 8, !tbaa !11
  %41 = getelementptr inbounds nuw %struct.UHashtable, ptr %40, i32 0, i32 4
  %42 = load ptr, ptr %41, align 8, !tbaa !22
  %43 = load ptr, ptr %4, align 8, !tbaa !26
  %44 = getelementptr inbounds nuw %struct.UHashElement, ptr %43, i32 0, i32 2
  %45 = load ptr, ptr %44, align 8, !tbaa !27
  call void %42(ptr noundef %45)
  br label %46

46:                                               ; preds = %39, %34, %29
  %47 = load ptr, ptr %2, align 8, !tbaa !11
  %48 = getelementptr inbounds nuw %struct.UHashtable, ptr %47, i32 0, i32 5
  %49 = load ptr, ptr %48, align 8, !tbaa !23
  %50 = icmp ne ptr %49, null
  br i1 %50, label %51, label %63

51:                                               ; preds = %46
  %52 = load ptr, ptr %4, align 8, !tbaa !26
  %53 = getelementptr inbounds nuw %struct.UHashElement, ptr %52, i32 0, i32 1
  %54 = load ptr, ptr %53, align 8, !tbaa !27
  %55 = icmp ne ptr %54, null
  br i1 %55, label %56, label %63

56:                                               ; preds = %51
  %57 = load ptr, ptr %2, align 8, !tbaa !11
  %58 = getelementptr inbounds nuw %struct.UHashtable, ptr %57, i32 0, i32 5
  %59 = load ptr, ptr %58, align 8, !tbaa !23
  %60 = load ptr, ptr %4, align 8, !tbaa !26
  %61 = getelementptr inbounds nuw %struct.UHashElement, ptr %60, i32 0, i32 1
  %62 = load ptr, ptr %61, align 8, !tbaa !27
  call void %59(ptr noundef %62)
  br label %63

63:                                               ; preds = %56, %51, %46
  br label %64

64:                                               ; preds = %63
  br label %65

65:                                               ; preds = %64
  br label %24, !llvm.loop !28

66:                                               ; preds = %24
  call void @llvm.lifetime.end.p0(i64 8, ptr %4) #9
  call void @llvm.lifetime.end.p0(i64 4, ptr %3) #9
  br label %67

67:                                               ; preds = %66, %18
  %68 = load ptr, ptr %2, align 8, !tbaa !11
  %69 = getelementptr inbounds nuw %struct.UHashtable, ptr %68, i32 0, i32 0
  %70 = load ptr, ptr %69, align 8, !tbaa !25
  call void @uprv_free_77(ptr noundef %70)
  %71 = load ptr, ptr %2, align 8, !tbaa !11
  %72 = getelementptr inbounds nuw %struct.UHashtable, ptr %71, i32 0, i32 0
  store ptr null, ptr %72, align 8, !tbaa !25
  br label %73

73:                                               ; preds = %67, %8
  %74 = load ptr, ptr %2, align 8, !tbaa !11
  %75 = getelementptr inbounds nuw %struct.UHashtable, ptr %74, i32 0, i32 13
  %76 = load i8, ptr %75, align 1, !tbaa !13
  %77 = icmp ne i8 %76, 0
  br i1 %77, label %78, label %80

78:                                               ; preds = %73
  %79 = load ptr, ptr %2, align 8, !tbaa !11
  call void @uprv_free_77(ptr noundef %79)
  br label %80

80:                                               ; preds = %7, %78, %73
  ret void
}