; Function Attrs: mustprogress uwtable
define void @uhash_close_77(ptr noundef %0) local_unnamed_addr #0 {
  %2 = icmp eq ptr %0, null
  br i1 %2, label %42, label %3

3:                                                ; preds = %1
  %4 = load ptr, ptr %0, align 8, !tbaa !21
  %.not = icmp eq ptr %4, null
  br i1 %.not, label %38, label %5

5:                                                ; preds = %3
  %6 = getelementptr inbounds nuw i8, ptr %0, i64 32
  %7 = load ptr, ptr %6, align 8, !tbaa !31
  %.not22 = icmp eq ptr %7, null
  br i1 %.not22, label %8, label %11

8:                                                ; preds = %5
  %9 = getelementptr inbounds nuw i8, ptr %0, i64 40
  %10 = load ptr, ptr %9, align 8, !tbaa !32
  %.not23 = icmp eq ptr %10, null
  br i1 %.not23, label %.loopexit, label %11

11:                                               ; preds = %8, %5
  %12 = getelementptr inbounds nuw i8, ptr %0, i64 52
  %13 = getelementptr inbounds nuw i8, ptr %0, i64 40
  br label %14

14:                                               ; preds = %.backedge, %11
  %.0 = phi i64 [ -1, %11 ], [ %indvars.iv.next.i, %.backedge ]
  %15 = load i32, ptr %12, align 4, !tbaa !20
  %sext = shl i64 %.0, 32
  %16 = ashr exact i64 %sext, 32
  %17 = sext i32 %15 to i64
  %18 = load ptr, ptr %0, align 8, !tbaa !21
  br label %19

19:                                               ; preds = %21, %14
  %indvars.iv.i = phi i64 [ %indvars.iv.next.i, %21 ], [ %16, %14 ]
  %indvars.iv.next.i = add nsw i64 %indvars.iv.i, 1
  %20 = icmp slt i64 %indvars.iv.next.i, %17
  br i1 %20, label %21, label %.loopexit

21:                                               ; preds = %19
  %22 = getelementptr inbounds %struct.UHashElement, ptr %18, i64 %indvars.iv.next.i
  %23 = load i32, ptr %22, align 8, !tbaa !22
  %24 = icmp slt i32 %23, 0
  br i1 %24, label %19, label %25, !llvm.loop !33

25:                                               ; preds = %21
  %26 = load ptr, ptr %6, align 8, !tbaa !31
  %.not26 = icmp eq ptr %26, null
  br i1 %.not26, label %31, label %27

27:                                               ; preds = %25
  %28 = getelementptr inbounds nuw i8, ptr %22, i64 16
  %29 = load ptr, ptr %28, align 8, !tbaa !34
  %.not27 = icmp eq ptr %29, null
  br i1 %.not27, label %31, label %30

30:                                               ; preds = %27
  tail call void %26(ptr noundef nonnull %29)
  br label %31

31:                                               ; preds = %30, %27, %25
  %32 = load ptr, ptr %13, align 8, !tbaa !32
  %.not28 = icmp eq ptr %32, null
  br i1 %.not28, label %.backedge, label %33

33:                                               ; preds = %31
  %34 = getelementptr inbounds nuw i8, ptr %22, i64 8
  %35 = load ptr, ptr %34, align 8, !tbaa !34
  %.not29 = icmp eq ptr %35, null
  br i1 %.not29, label %.backedge, label %36

36:                                               ; preds = %33
  tail call void %32(ptr noundef nonnull %35)
  br label %.backedge

.backedge:                                        ; preds = %36, %33, %31
  br label %14, !llvm.loop !35

.loopexit:                                        ; preds = %19, %8
  %37 = phi ptr [ %4, %8 ], [ %18, %19 ]
  tail call void @uprv_free_77(ptr noundef %37)
  store ptr null, ptr %0, align 8, !tbaa !21
  br label %38

38:                                               ; preds = %.loopexit, %3
  %39 = getelementptr inbounds nuw i8, ptr %0, i64 73
  %40 = load i8, ptr %39, align 1, !tbaa !15
  %.not25 = icmp eq i8 %40, 0
  br i1 %.not25, label %42, label %41

41:                                               ; preds = %38
  tail call void @uprv_free_77(ptr noundef nonnull %0)
  br label %42

42:                                               ; preds = %1, %41, %38
  ret void
}